Certificate:
    Data:
        Version: 3 (0x2)
        Serial Number: 14908262977180600576 (0xcee4ca30bcf50900)
    Signature Algorithm: sha1WithRSAEncryption
        Issuer: C=IT, ST=Sicily, L=Catania, O=Redis, OU=Security, CN=127.0.0.1
        Validity
            Not Before: Apr  2 03:34:42 2016 GMT
            Not After : Jun 23 03:34:42 2050 GMT
        Subject: C=IT, ST=Sicily, O=Redis, OU=Security, CN=127.0.0.1
        Subject Public Key Info:
            Public Key Algorithm: rsaEncryption
                Public-Key: (2048 bit)
                Modulus:
                    00:ab:bf:ac:ef:dc:99:35:fa:07:3f:d5:33:86:f1:
                    7d:9e:57:8b:d5:c1:10:04:0c:35:95:7c:61:ff:05:
                    a6:f9:ef:71:5c:c5:83:68:a2:ad:5d:0f:a5:2b:b4:
                    76:9f:36:8f:df:75:fb:d6:48:00:c0:f0:68:56:f6:
                    49:84:4d:4e:e1:ca:dd:24:9f:2f:5e:7c:35:26:57:
                    d6:d5:95:d1:3f:40:32:22:43:2c:8c:b7:8c:89:56:
                    7c:d0:94:e5:f7:cf:4a:51:3f:60:b2:fe:1f:3b:38:
                    d6:47:5d:2e:4f:38:75:d9:9b:c8:0f:d1:fd:91:5a:
                    07:c3:94:95:1f:7b:f1:ae:dc:a1:83:e2:6b:78:05:
                    34:b3:8b:87:86:31:9f:cc:8b:15:cd:18:2e:06:36:
                    ca:f8:29:f8:6e:93:60:78:ec:8a:e8:a6:94:ad:24:
                    a8:e3:d4:ac:42:da:52:0f:34:e8:d0:10:e5:53:db:
                    f8:3a:56:48:10:33:df:80:70:1c:72:5e:1f:c3:11:
                    bb:3b:b9:6b:0a:e0:82:eb:67:d4:8f:5c:30:d3:cf:
                    17:6d:86:01:0e:ae:43:c1:d8:c0:5e:99:ef:fa:60:
                    0a:f2:62:68:62:8b:05:f3:8b:b1:34:d8:70:78:35:
                    74:76:c2:46:13:a3:1f:5d:7b:3b:49:20:1e:98:54:
                    63:77
                Exponent: 65537 (0x10001)
        X509v3 extensions:
            X509v3 Basic Constraints: 
                CA:FALSE
            Netscape Comment: 
                OpenSSL Generated Certificate
            X509v3 Subject Key Identifier: 
                81:DE:C0:39:F9:8A:57:50:DB:B1:6A:B3:D0:5F:E9:2C:87:5A:1E:3D
            X509v3 Authority Key Identifier: 
                keyid:F9:81:BD:90:94:77:57:2D:F5:77:B4:15:CB:14:40:63:22:93:2B:5F

    Signature Algorithm: sha1WithRSAEncryption
         a3:0a:d7:22:5a:bc:cc:f6:ed:2f:f2:9f:dd:e0:46:02:73:14:
         dd:a7:f5:39:b9:16:19:16:36:b6:22:5c:66:14:c0:d3:ac:55:
         fc:52:2d:c3:b2:70:5f:cf:3d:23:71:78:e9:31:88:65:2c:2e:
         4a:09:6e:4b:97:bb:4d:38:87:d8:25:ed:bb:ed:62:19:08:50:
         f2:40:cc:39:ee:f9:a8:3a:5d:2b:e7:34:eb:8a:74:c7:c9:bc:
         88:9b:9b:ca:5b:11:20:ca:53:b2:0b:20:49:fc:b9:f7:ec:03:
         c9:5d:c1:24:75:27:f8:7c:70:dc:6a:2c:98:48:93:5f:7f:7e:
         94:a1:cf:79:b3:24:e3:de:9e:f0:0f:d8:d6:3e:c9:52:30:31:
         87:90:c2:d2:23:be:d8:7a:e9:e6:bb:4b:00:75:30:49:4b:98:
         d5:f6:7d:b5:83:b5:57:85:20:98:00:51:55:c3:a2:81:ec:6c:
         11:91:33:60:14:7b:d2:01:ee:5b:bf:5b:68:f5:e0:4e:45:0a:
         68:cd:33:4f:29:72:fa:fe:6a:19:b6:84:70:90:a4:d5:7a:04:
         2e:da:5b:98:4f:e4:aa:a6:c4:68:aa:5c:8c:a5:5e:df:20:94:
         22:f7:37:45:71:a4:bc:72:34:ee:42:cf:9d:0f:fb:4a:39:d1:
         8e:41:f3:3f
-----BEGIN CERTIFICATE-----
MIIDvDCCAqSgAwIBAgIJAM7kyjC89QkAMA0GCSqGSIb3DQEBBQUAMGcxCzAJBgNV
BAYTAklUMQ8wDQYDVQQIEwZTaWNpbHkxEDAOBgNVBAcTB0NhdGFuaWExDjAMBgNV
BAoTBVJlZGlzMREwDwYDVQQLEwhTZWN1cml0eTESMBAGA1UEAxMJMTI3LjAuMC4x
MCAXDTE2MDQwMjAzMzQ0MloYDzIwNTAwNjIzMDMzNDQyWjBVMQswCQYDVQQGEwJJ
VDEPMA0GA1UECBMGU2ljaWx5MQ4wDAYDVQQKEwVSZWRpczERMA8GA1UECxMIU2Vj
dXJpdHkxEjAQBgNVBAMTCTEyNy4wLjAuMTCCASIwDQYJKoZIhvcNAQEBBQADggEP
ADCCAQoCggEBAKu/rO/cmTX6Bz/VM4bxfZ5Xi9XBEAQMNZV8Yf8FpvnvcVzFg2ii
rV0PpSu0dp82j991+9ZIAMDwaFb2SYRNTuHK3SSfL158NSZX1tWV0T9AMiJDLIy3
jIlWfNCU5ffPSlE/YLL+Hzs41kddLk84ddmbyA/R/ZFaB8OUlR978a7coYPia3gF
NLOLh4Yxn8yLFc0YLgY2yvgp+G6TYHjsiuimlK0kqOPUrELaUg806NAQ5VPb+DpW
SBAz34BwHHJeH8MRuzu5awrggutn1I9cMNPPF22GAQ6uQ8HYwF6Z7/pgCvJiaGKL
BfOLsTTYcHg1dHbCRhOjH117O0kgHphUY3cCAwEAAaN7MHkwCQYDVR0TBAIwADAs
BglghkgBhvhCAQ0EHxYdT3BlblNTTCBHZW5lcmF0ZWQgQ2VydGlmaWNhdGUwHQYD
VR0OBBYEFIHewDn5ildQ27Fqs9Bf6SyHWh49MB8GA1UdIwQYMBaAFPmBvZCUd1ct
9Xe0FcsUQGMikytfMA0GCSqGSIb3DQEBBQUAA4IBAQCjCtciWrzM9u0v8p/d4EYC
cxTdp/U5uRYZFja2IlxmFMDTrFX8Ui3DsnBfzz0jcXjpMYhlLC5KCW5Ll7tNOIfY
Je277WIZCFDyQMw57vmoOl0r5zTrinTHybyIm5vKWxEgylOyCyBJ/Ln37APJXcEk
dSf4fHDcaiyYSJNff36Uoc95syTj3p7wD9jWPslSMDGHkMLSI77Yeunmu0sAdTBJ
S5jV9n21g7VXhSCYAFFVw6KB7GwRkTNgFHvSAe5bv1to9eBORQpozTNPKXL6/moZ
toRwkKTVegQu2luYT+SqpsRoqlyMpV7fIJQi9zdFcaS8cjTuQs+dD/tKOdGOQfM/
-----END CERTIFICATE-----
