Certificate:
    Data:
        Version: 3 (0x2)
        Serial Number: 9801410922913464933 (0x88059b4de5e40265)
    Signature Algorithm: sha1WithRSAEncryption
        Issuer: C=XX, ST=Untrusted, L=Evilville, O=Evil Hacker, OU=Attack Department, CN=127.0.0.1
        Validity
            Not Before: Apr  2 03:34:51 2016 GMT
            Not After : Jun 23 03:34:51 2050 GMT
        Subject: C=XX, ST=Untrusted, O=Evil Hacker, OU=Attack Department, CN=127.0.0.1
        Subject Public Key Info:
            Public Key Algorithm: rsaEncryption
                Public-Key: (2048 bit)
                Modulus:
                    00:9a:73:e7:45:fc:d3:b5:4a:bd:bd:ad:30:e5:24:
                    74:38:01:89:8f:a9:90:bf:3c:4a:bf:d1:f1:5e:db:
                    c8:aa:26:59:e6:ec:b3:a0:0f:4d:74:59:dd:c9:27:
                    2f:e1:48:7d:30:d9:59:06:2f:29:f0:d1:25:33:79:
                    5f:58:9d:d7:54:c8:a7:aa:1a:84:00:a2:85:63:32:
                    cc:ef:73:7d:b0:26:c6:95:f1:86:16:68:38:63:57:
                    09:0d:6f:6a:70:e8:75:3b:72:b4:b1:4d:01:0e:01:
                    0e:bf:bf:6a:8c:88:fe:0d:cb:88:43:1b:da:ed:0c:
                    88:25:33:f7:b9:b1:fc:32:b8:94:c9:20:7c:ac:49:
                    e4:c1:58:93:69:0e:41:e3:df:96:e3:47:11:14:8c:
                    e4:4b:b6:56:df:6f:5e:d2:48:dc:a1:8a:98:cc:4b:
                    02:89:95:ea:f6:de:a5:3a:9c:06:7c:f0:7c:09:6f:
                    27:11:f2:b1:1b:47:6b:a3:ea:d6:ee:a1:65:91:84:
                    cf:2e:81:d3:55:4a:e8:01:4e:72:41:ac:92:e0:7d:
                    7c:fe:85:f0:2e:f1:ee:4a:80:f9:4e:5a:b4:95:6c:
                    bb:fe:ff:46:58:4a:7b:fc:a0:63:59:5d:01:5b:63:
                    06:5c:94:83:30:27:81:f0:1a:13:89:5a:5a:a2:e2:
                    0f:eb
                Exponent: 65537 (0x10001)
        X509v3 extensions:
            X509v3 Basic Constraints: 
                CA:FALSE
            Netscape Comment: 
                OpenSSL Generated Certificate
            X509v3 Subject Key Identifier: 
                1B:71:91:99:43:12:0F:D3:59:FC:00:EF:99:F3:42:CF:41:FD:40:1D
            X509v3 Authority Key Identifier: 
                keyid:B7:83:36:F2:A9:24:A9:AE:C8:FB:1A:99:AC:76:01:94:E2:8D:D9:30

    Signature Algorithm: sha1WithRSAEncryption
         a4:cd:88:c3:19:b7:cd:7e:7a:e7:85:1f:fb:3e:31:0b:ff:9d:
         6f:b1:a2:72:56:4a:b1:ec:6c:f3:99:bd:65:08:0a:e9:47:1d:
         79:55:5b:29:b1:d4:85:69:85:65:3f:30:37:a1:0e:76:d2:1f:
         b0:76:2a:23:75:c9:05:a4:89:cf:c1:68:42:16:46:d6:c9:a8:
         e5:06:5b:52:45:d4:41:5d:f3:c7:00:d1:ca:cc:3e:4c:63:e6:
         7a:fe:ce:20:a4:df:e3:7c:e3:75:6e:f7:18:84:1c:9b:56:ce:
         55:fb:04:b9:de:11:6e:7d:5d:47:de:a9:ed:3e:79:48:a5:4f:
         32:d5:96:8d:ea:e2:a6:8a:c2:e9:f5:b0:8d:da:ef:71:96:60:
         b0:7e:c3:3d:e9:37:91:27:bf:ae:5c:e8:c0:9a:6f:c8:38:62:
         90:d0:49:c1:7f:28:13:da:29:bb:5b:d1:72:6f:23:7c:a0:87:
         44:96:47:53:0e:0d:1d:74:d9:26:6b:b3:01:24:9c:5e:c8:f4:
         11:fe:35:14:6c:ec:e7:42:5f:32:56:f0:9d:8d:11:02:21:07:
         cc:ce:7b:f0:e9:bc:83:c8:93:b0:8c:a7:e9:b1:c2:12:6b:30:
         2b:75:dc:61:b8:d4:87:6b:07:2d:75:b0:7a:18:6e:19:7f:04:
         78:c6:c7:b7
-----BEGIN CERTIFICATE-----
MIID4jCCAsqgAwIBAgIJAIgFm03l5AJlMA0GCSqGSIb3DQEBBQUAMHsxCzAJBgNV
BAYTAlhYMRIwEAYDVQQIEwlVbnRydXN0ZWQxEjAQBgNVBAcTCUV2aWx2aWxsZTEU
MBIGA1UEChMLRXZpbCBIYWNrZXIxGjAYBgNVBAsTEUF0dGFjayBEZXBhcnRtZW50
MRIwEAYDVQQDEwkxMjcuMC4wLjEwIBcNMTYwNDAyMDMzNDUxWhgPMjA1MDA2MjMw
MzM0NTFaMGcxCzAJBgNVBAYTAlhYMRIwEAYDVQQIEwlVbnRydXN0ZWQxFDASBgNV
BAoTC0V2aWwgSGFja2VyMRowGAYDVQQLExFBdHRhY2sgRGVwYXJ0bWVudDESMBAG
A1UEAxMJMTI3LjAuMC4xMIIBIjANBgkqhkiG9w0BAQEFAAOCAQ8AMIIBCgKCAQEA
mnPnRfzTtUq9va0w5SR0OAGJj6mQvzxKv9HxXtvIqiZZ5uyzoA9NdFndyScv4Uh9
MNlZBi8p8NElM3lfWJ3XVMinqhqEAKKFYzLM73N9sCbGlfGGFmg4Y1cJDW9qcOh1
O3K0sU0BDgEOv79qjIj+DcuIQxva7QyIJTP3ubH8MriUySB8rEnkwViTaQ5B49+W
40cRFIzkS7ZW329e0kjcoYqYzEsCiZXq9t6lOpwGfPB8CW8nEfKxG0dro+rW7qFl
kYTPLoHTVUroAU5yQayS4H18/oXwLvHuSoD5Tlq0lWy7/v9GWEp7/KBjWV0BW2MG
XJSDMCeB8BoTiVpaouIP6wIDAQABo3sweTAJBgNVHRMEAjAAMCwGCWCGSAGG+EIB
DQQfFh1PcGVuU1NMIEdlbmVyYXRlZCBDZXJ0aWZpY2F0ZTAdBgNVHQ4EFgQUG3GR
mUMSD9NZ/ADvmfNCz0H9QB0wHwYDVR0jBBgwFoAUt4M28qkkqa7I+xqZrHYBlOKN
2TAwDQYJKoZIhvcNAQEFBQADggEBAKTNiMMZt81+eueFH/s+MQv/nW+xonJWSrHs
bPOZvWUICulHHXlVWymx1IVphWU/MDehDnbSH7B2KiN1yQWkic/BaEIWRtbJqOUG
W1JF1EFd88cA0crMPkxj5nr+ziCk3+N843Vu9xiEHJtWzlX7BLneEW59XUfeqe0+
eUilTzLVlo3q4qaKwun1sI3a73GWYLB+wz3pN5Env65c6MCab8g4YpDQScF/KBPa
Kbtb0XJvI3ygh0SWR1MODR102SZrswEknF7I9BH+NRRs7OdCXzJW8J2NEQIhB8zO
e/DpvIPIk7CMp+mxwhJrMCt13GG41IdrBy11sHoYbhl/BHjGx7c=
-----END CERTIFICATE-----
